; Function Attrs: nounwind uwtable
define void @Abc_AigPrintNode(ptr noundef %0) local_unnamed_addr #0 {
  %2 = ptrtoint ptr %0 to i64
  %3 = and i64 %2, -2
  %4 = inttoptr i64 %3 to ptr
  %5 = getelementptr i8, ptr %4, i64 20
  %.val23 = load i32, ptr %5, align 4
  %6 = and i32 %.val23, 15
  switch i32 %6, label %16 [
    i32 5, label %7
    i32 2, label %7
    i32 1, label %12
  ]

7:                                                ; preds = %1, %1
  %8 = tail call ptr @Abc_ObjName(ptr noundef nonnull %4) #21
  %9 = and i64 %2, 1
  %.not17 = icmp eq i64 %9, 0
  %10 = select i1 %.not17, ptr @.str.10, ptr @.str.9
  %11 = tail call i32 (ptr, ...) @printf(ptr noundef nonnull dereferenceable(1) @.str.8, ptr noundef %8, ptr noundef nonnull %10)
  br label %43

12:                                               ; preds = %1
  %13 = and i64 %2, 1
  %.not16 = icmp eq i64 %13, 0
  %14 = select i1 %.not16, ptr @.str.10, ptr @.str.12
  %15 = tail call i32 (ptr, ...) @printf(ptr noundef nonnull dereferenceable(1) @.str.11, ptr noundef nonnull %14)
  br label %43

16:                                               ; preds = %1
  %17 = tail call ptr @Abc_ObjName(ptr noundef nonnull %4) #21
  %18 = and i64 %2, 1
  %.not13 = icmp eq i64 %18, 0
  %19 = select i1 %.not13, ptr @.str.10, ptr @.str.9
  %20 = tail call i32 (ptr, ...) @printf(ptr noundef nonnull dereferenceable(1) @.str.13, ptr noundef %17, ptr noundef nonnull %19)
  %21 = tail call i32 (ptr, ...) @printf(ptr noundef nonnull dereferenceable(1) @.str.14)
  %.val = load ptr, ptr %4, align 8
  %22 = getelementptr i8, ptr %4, i64 32
  %.val18 = load ptr, ptr %22, align 8
  %23 = getelementptr i8, ptr %.val, i64 32
  %.val.val = load ptr, ptr %23, align 8
  %.val18.val = load i32, ptr %.val18, align 4
  %24 = getelementptr i8, ptr %.val.val, i64 8
  %.val.val.val = load ptr, ptr %24, align 8
  %25 = sext i32 %.val18.val to i64
  %26 = getelementptr inbounds ptr, ptr %.val.val.val, i64 %25
  %27 = load ptr, ptr %26, align 8
  %28 = tail call ptr @Abc_ObjName(ptr noundef %27) #21
  %.val21 = load i32, ptr %5, align 4
  %29 = and i32 %.val21, 1024
  %.not14 = icmp eq i32 %29, 0
  %30 = select i1 %.not14, ptr @.str.10, ptr @.str.9
  %31 = tail call i32 (ptr, ...) @printf(ptr noundef nonnull dereferenceable(1) @.str.13, ptr noundef %28, ptr noundef nonnull %30)
  %32 = tail call i32 (ptr, ...) @printf(ptr noundef nonnull dereferenceable(1) @.str.15)
  %.val19 = load ptr, ptr %4, align 8
  %.val20 = load ptr, ptr %22, align 8
  %33 = getelementptr i8, ptr %.val19, i64 32
  %.val19.val = load ptr, ptr %33, align 8
  %34 = getelementptr i8, ptr %.val20, i64 4
  %.val20.val = load i32, ptr %34, align 4
  %35 = getelementptr i8, ptr %.val19.val, i64 8
  %.val19.val.val = load ptr, ptr %35, align 8
  %36 = sext i32 %.val20.val to i64
  %37 = getelementptr inbounds ptr, ptr %.val19.val.val, i64 %36
  %38 = load ptr, ptr %37, align 8
  %39 = tail call ptr @Abc_ObjName(ptr noundef %38) #21
  %.val22 = load i32, ptr %5, align 4
  %40 = and i32 %.val22, 2048
  %.not15 = icmp eq i32 %40, 0
  %41 = select i1 %.not15, ptr @.str.10, ptr @.str.9
  %42 = tail call i32 (ptr, ...) @printf(ptr noundef nonnull dereferenceable(1) @.str.13, ptr noundef %39, ptr noundef nonnull %41)
  %putchar = tail call i32 @putchar(i32 10)
  br label %43

43:                                               ; preds = %16, %12, %7
  ret void
}